; Function Attrs: mustprogress nofree norecurse nosync nounwind willreturn memory(read, argmem: readwrite, inaccessiblemem: none) uwtable
define noundef signext i8 @_ZNK6icu_7513ResourceArray8getValueEiRNS_13ResourceValueE(ptr nocapture noundef nonnull readonly align 8 dereferenceable(21) %this, i32 noundef %i, ptr nocapture noundef nonnull align 8 dereferenceable(8) %value) local_unnamed_addr #5 align 2 {
entry:
  %cmp = icmp sgt i32 %i, -1
  %length = getelementptr inbounds i8, ptr %this, i64 16
  %0 = load i32, ptr %length, align 8
  %cmp2 = icmp sgt i32 %0, %i
  %or.cond = select i1 %cmp, i1 %cmp2, i1 false
  br i1 %or.cond, label %if.then, label %return

if.then:                                          ; preds = %entry
  %pResData.i = getelementptr inbounds i8, ptr %value, i64 8
  %1 = load ptr, ptr %pResData.i, align 8
  %2 = load ptr, ptr %this, align 8
  %cmp.not.i = icmp eq ptr %2, null
  br i1 %cmp.not.i, label %if.else.i, label %if.then.i

if.then.i:                                        ; preds = %if.then
  %idxprom.i = zext nneg i32 %i to i64
  %arrayidx.i = getelementptr inbounds i16, ptr %2, i64 %idxprom.i
  %3 = load i16, ptr %arrayidx.i, align 2
  %conv.i = zext i16 %3 to i32
  %poolStringIndex16Limit.i.i = getelementptr inbounds i8, ptr %1, i64 52
  %4 = load i32, ptr %poolStringIndex16Limit.i.i, align 4
  %cmp.i.i = icmp sgt i32 %4, %conv.i
  br i1 %cmp.i.i, label %_ZL18makeResourceFrom16PK12ResourceDatai.exit.i, label %if.else.i.i

if.else.i.i:                                      ; preds = %if.then.i
  %sub.i.i = sub i32 %conv.i, %4
  %poolStringIndexLimit.i.i = getelementptr inbounds i8, ptr %1, i64 48
  %5 = load i32, ptr %poolStringIndexLimit.i.i, align 8
  %add.i.i = add nsw i32 %sub.i.i, %5
  br label %_ZL18makeResourceFrom16PK12ResourceDatai.exit.i

_ZL18makeResourceFrom16PK12ResourceDatai.exit.i:  ; preds = %if.else.i.i, %if.then.i
  %res16.addr.0.i.i = phi i32 [ %conv.i, %if.then.i ], [ %add.i.i, %if.else.i.i ]
  %or.i.i = or i32 %res16.addr.0.i.i, 1610612736
  br label %_ZNK6icu_7513ResourceArray19internalGetResourceEPK12ResourceDatai.exit

if.else.i:                                        ; preds = %if.then
  %items32.i = getelementptr inbounds i8, ptr %this, i64 8
  %6 = load ptr, ptr %items32.i, align 8
  %idxprom3.i = zext nneg i32 %i to i64
  %arrayidx4.i = getelementptr inbounds i32, ptr %6, i64 %idxprom3.i
  %7 = load i32, ptr %arrayidx4.i, align 4
  br label %_ZNK6icu_7513ResourceArray19internalGetResourceEPK12ResourceDatai.exit

_ZNK6icu_7513ResourceArray19internalGetResourceEPK12ResourceDatai.exit: ; preds = %_ZL18makeResourceFrom16PK12ResourceDatai.exit.i, %if.else.i
  %retval.0.i = phi i32 [ %or.i.i, %_ZL18makeResourceFrom16PK12ResourceDatai.exit.i ], [ %7, %if.else.i ]
  %res.i = getelementptr inbounds i8, ptr %value, i64 24
  store i32 %retval.0.i, ptr %res.i, align 8
  br label %return

return:                                           ; preds = %entry, %_ZNK6icu_7513ResourceArray19internalGetResourceEPK12ResourceDatai.exit
  %retval.0 = phi i8 [ 1, %_ZNK6icu_7513ResourceArray19internalGetResourceEPK12ResourceDatai.exit ], [ 0, %entry ]
  ret i8 %retval.0
}